target datalayout = "e-m:e-p270:32:32-p271:32:32-p272:64:64-i64:64-i128:128-f80:128-n8:16:32:64-S128"
target triple = "x86_64-pc-linux-gnu"

%struct.tng_trajectory = type { ptr, ptr, i64, ptr, ptr, ptr, ptr, ptr, ptr, i8, i8, ptr, ptr, ptr, ptr, ptr, ptr, ptr, ptr, ptr, i64, i64, i8, i64, i64, i64, double, i64, ptr, ptr, i64, i64, i64, i64, i64, %struct.tng_trajectory_frame_set, i64, i64, i64, i32, ptr, i32, ptr, ptr, ptr, double }
%struct.tng_trajectory_frame_set = type { i64, ptr, i64, i64, i64, i64, ptr, i64, i64, i64, i64, i64, i64, i64, double, i32, ptr, i32, ptr }

@.str.43 = private unnamed_addr constant [10 x i8] c"POSITIONS\00", align 1

; Function Attrs: nounwind uwtable
define i32 @tng_frame_set_first_frame_time_set(ptr noundef %0, double noundef %1) #0 {
  %3 = alloca ptr, align 8
  %4 = alloca double, align 8
  store ptr %0, ptr %3, align 8, !tbaa !3
  store double %1, ptr %4, align 8, !tbaa !228
  %5 = load double, ptr %4, align 8, !tbaa !228
  %6 = load ptr, ptr %3, align 8, !tbaa !3
  %7 = getelementptr inbounds nuw %struct.tng_trajectory, ptr %6, i32 0, i32 35
  %8 = getelementptr inbounds nuw %struct.tng_trajectory_frame_set, ptr %7, i32 0, i32 14
  store double %5, ptr %8, align 8, !tbaa !326
  ret i32 0
}

; Function Attrs: nounwind uwtable
define i32 @tng_util_generic_with_time_write(ptr noundef %0, i64 noundef %1, double noundef %2, ptr noundef %3, i64 noundef %4, i64 noundef %5, ptr noundef %6, i8 noundef signext %7, i8 noundef signext %8) #0 {
  %10 = alloca i32, align 4
  %11 = alloca ptr, align 8
  %12 = alloca i64, align 8
  %13 = alloca double, align 8
  %14 = alloca ptr, align 8
  %15 = alloca i64, align 8
  %16 = alloca i64, align 8
  %17 = alloca ptr, align 8
  %18 = alloca i8, align 1
  %19 = alloca i8, align 1
  %20 = alloca ptr, align 8
  %21 = alloca i32, align 4
  %22 = alloca i32, align 4
  store ptr %0, ptr %11, align 8, !tbaa !3
  store i64 %1, ptr %12, align 8, !tbaa !26
  store double %2, ptr %13, align 8, !tbaa !228
  store ptr %3, ptr %14, align 8, !tbaa !444
  store i64 %4, ptr %15, align 8, !tbaa !26
  store i64 %5, ptr %16, align 8, !tbaa !26
  store ptr %6, ptr %17, align 8, !tbaa !19
  store i8 %7, ptr %18, align 1, !tbaa !23
  store i8 %8, ptr %19, align 1, !tbaa !23
  call void @llvm.lifetime.start.p0(i64 8, ptr %20) #11
  call void @llvm.lifetime.start.p0(i64 4, ptr %21) #11
  %23 = load ptr, ptr %11, align 8, !tbaa !3
  %24 = load i64, ptr %12, align 8, !tbaa !26
  %25 = load ptr, ptr %14, align 8, !tbaa !444
  %26 = load i64, ptr %15, align 8, !tbaa !26
  %27 = load i64, ptr %16, align 8, !tbaa !26
  %28 = load ptr, ptr %17, align 8, !tbaa !19
  %29 = load i8, ptr %18, align 1, !tbaa !23
  %30 = load i8, ptr %19, align 1, !tbaa !23
  %31 = call i32 @tng_util_generic_write(ptr noundef %23, i64 noundef %24, ptr noundef %25, i64 noundef %26, i64 noundef %27, ptr noundef %28, i8 noundef signext %29, i8 noundef signext %30)
  store i32 %31, ptr %21, align 4, !tbaa !20
  %32 = load i32, ptr %21, align 4, !tbaa !20
  %33 = icmp ne i32 %32, 0
  br i1 %33, label %34, label %36

34:                                               ; preds = %9
  %35 = load i32, ptr %21, align 4, !tbaa !20
  store i32 %35, ptr %10, align 4
  store i32 1, ptr %22, align 4
  br label %71

36:                                               ; preds = %9
  %37 = load ptr, ptr %11, align 8, !tbaa !3
  %38 = getelementptr inbounds nuw %struct.tng_trajectory, ptr %37, i32 0, i32 35
  store ptr %38, ptr %20, align 8, !tbaa !121
  %39 = load ptr, ptr %20, align 8, !tbaa !121
  %40 = getelementptr inbounds nuw %struct.tng_trajectory_frame_set, ptr %39, i32 0, i32 14
  %41 = load double, ptr %40, align 8, !tbaa !183
  %42 = fcmp olt double %41, -1.000000e-01
  br i1 %42, label %43, label %69

43:                                               ; preds = %36
  %44 = load i64, ptr %12, align 8, !tbaa !26
  %45 = load ptr, ptr %20, align 8, !tbaa !121
  %46 = getelementptr inbounds nuw %struct.tng_trajectory_frame_set, ptr %45, i32 0, i32 2
  %47 = load i64, ptr %46, align 8, !tbaa !169
  %48 = icmp sgt i64 %44, %47
  br i1 %48, label %49, label %64

49:                                               ; preds = %43
  %50 = load ptr, ptr %11, align 8, !tbaa !3
  %51 = load double, ptr %13, align 8, !tbaa !228
  %52 = load i64, ptr %12, align 8, !tbaa !26
  %53 = load ptr, ptr %20, align 8, !tbaa !121
  %54 = getelementptr inbounds nuw %struct.tng_trajectory_frame_set, ptr %53, i32 0, i32 2
  %55 = load i64, ptr %54, align 8, !tbaa !169
  %56 = sub nsw i64 %52, %55
  %57 = sitofp i64 %56 to double
  %58 = load ptr, ptr %11, align 8, !tbaa !3
  %59 = getelementptr inbounds nuw %struct.tng_trajectory, ptr %58, i32 0, i32 26
  %60 = load double, ptr %59, align 8, !tbaa !160
  %61 = fneg double %57
  %62 = call double @llvm.fmuladd.f64(double %61, double %60, double %51)
  %63 = call i32 @tng_frame_set_first_frame_time_set(ptr noundef %50, double noundef %62)
  store i32 %63, ptr %21, align 4, !tbaa !20
  br label %68

64:                                               ; preds = %43
  %65 = load ptr, ptr %11, align 8, !tbaa !3
  %66 = load double, ptr %13, align 8, !tbaa !228
  %67 = call i32 @tng_frame_set_first_frame_time_set(ptr noundef %65, double noundef %66)
  store i32 %67, ptr %21, align 4, !tbaa !20
  br label %68

68:                                               ; preds = %64, %49
  br label %69

69:                                               ; preds = %68, %36
  %70 = load i32, ptr %21, align 4, !tbaa !20
  store i32 %70, ptr %10, align 4
  store i32 1, ptr %22, align 4
  br label %71

71:                                               ; preds = %69, %34
  call void @llvm.lifetime.end.p0(i64 4, ptr %21) #11
  call void @llvm.lifetime.end.p0(i64 8, ptr %20) #11
  %72 = load i32, ptr %10, align 4
  ret i32 %72
}

; Function Attrs: nounwind uwtable
define i32 @tng_util_pos_with_time_write(ptr noundef %0, i64 noundef %1, double noundef %2, ptr noundef %3) #0 {
  %5 = alloca ptr, align 8
  %6 = alloca i64, align 8
  %7 = alloca double, align 8
  %8 = alloca ptr, align 8
  store ptr %0, ptr %5, align 8, !tbaa !3
  store i64 %1, ptr %6, align 8, !tbaa !26
  store double %2, ptr %7, align 8, !tbaa !228
  store ptr %3, ptr %8, align 8, !tbaa !444
  %9 = load ptr, ptr %5, align 8, !tbaa !3
  %10 = load i64, ptr %6, align 8, !tbaa !26
  %11 = load double, ptr %7, align 8, !tbaa !228
  %12 = load ptr, ptr %8, align 8, !tbaa !444
  %13 = call i32 @tng_util_generic_with_time_write(ptr noundef %9, i64 noundef %10, double noundef %11, ptr noundef %12, i64 noundef 3, i64 noundef 268435457, ptr noundef @.str.43, i8 noundef signext 1, i8 noundef signext 2)
  ret i32 %13
}