; Function Attrs: nounwind uwtable
define range(i32 0, 3) i32 @tng_util_pos_with_time_write(ptr noundef %0, i64 noundef %1, double noundef %2, ptr noundef %3) local_unnamed_addr #4 {
  %5 = tail call i32 @tng_util_generic_write(ptr noundef %0, i64 noundef %1, ptr noundef %3, i64 noundef 3, i64 noundef 268435457, ptr noundef nonnull @.str.43, i8 noundef signext 1, i8 noundef signext 2)
  %.not.i = icmp eq i32 %5, 0
  br i1 %.not.i, label %6, label %tng_util_generic_with_time_write.exit

6:                                                ; preds = %4
  %7 = getelementptr inbounds nuw i8, ptr %0, i64 384
  %8 = load double, ptr %7, align 8, !tbaa !133
  %9 = fcmp olt double %8, -1.000000e-01
  br i1 %9, label %10, label %tng_util_generic_with_time_write.exit

10:                                               ; preds = %6
  %11 = getelementptr inbounds nuw i8, ptr %0, i64 288
  %12 = load i64, ptr %11, align 8, !tbaa !128
  %13 = icmp sgt i64 %1, %12
  br i1 %13, label %14, label %.sink.split.i

14:                                               ; preds = %10
  %15 = sub nsw i64 %1, %12
  %16 = sitofp i64 %15 to double
  %17 = getelementptr inbounds nuw i8, ptr %0, i64 200
  %18 = load double, ptr %17, align 8, !tbaa !122
  %19 = fneg double %16
  %20 = tail call double @llvm.fmuladd.f64(double %19, double %18, double %2)
  br label %.sink.split.i

.sink.split.i:                                    ; preds = %14, %10
  %.sink.i = phi double [ %20, %14 ], [ %2, %10 ]
  store double %.sink.i, ptr %7, align 8, !tbaa !317
  br label %tng_util_generic_with_time_write.exit

tng_util_generic_with_time_write.exit:            ; preds = %4, %6, %.sink.split.i
  ret i32 %5
}